Certificate:
    Data:
        Version: 3 (0x2)
        Serial Number: 11 (0xb)
    Signature Algorithm: sha256WithRSAEncryption
        Issuer: C=CN, ST=guangdong, L=guangzhou, O=pinkong, OU=pinkongUnit, CN=pinkong CA/name=EasyRSA/emailAddress=me@myhost.mydomain
        Validity
            Not Before: Feb  4 13:10:58 2018 GMT
            Not After : Feb  2 13:10:58 2028 GMT
        Subject: C=CN, ST=guangdong, L=guangzhou, O=pinkong, OU=pinkongUnit, CN=dfxk/name=EasyRSA/emailAddress=me@myhost.mydomain
        Subject Public Key Info:
            Public Key Algorithm: rsaEncryption
                Public-Key: (2048 bit)
                Modulus:
                    00:ca:35:ae:f6:51:c5:f6:5e:6d:8f:c7:e7:0b:71:
                    7a:f9:97:5f:f7:48:14:55:e9:f0:a0:38:1e:76:f6:
                    7d:86:0c:94:36:9c:40:d7:de:97:52:09:51:a8:7e:
                    cb:c2:d5:89:7a:57:b6:02:e7:ab:01:1c:04:63:bc:
                    0e:43:04:76:6d:0a:48:a0:a5:32:67:4f:a2:96:5e:
                    f3:a4:03:f2:69:32:c6:03:aa:ec:e2:b3:4b:93:80:
                    da:7c:42:e4:59:3a:c0:3d:d3:89:f5:f2:f9:ca:e4:
                    ab:4f:d8:57:16:7e:f8:99:9c:00:ab:68:ac:0a:3b:
                    25:36:8b:f3:fc:3c:20:6a:66:ce:91:c5:3a:c0:77:
                    fc:e1:8b:34:d2:1c:3f:a9:2a:24:01:6c:92:5e:db:
                    b7:7f:ab:d9:7d:af:99:22:d0:53:b8:09:b5:02:d9:
                    fd:64:c4:f9:17:d5:01:0b:f6:4c:9c:2e:db:c1:e0:
                    20:3a:c1:17:c4:3a:b8:25:ae:11:40:bb:2c:d2:fe:
                    36:1b:b1:d1:32:19:ea:91:4d:83:4e:c2:7f:46:55:
                    86:9f:0b:1e:c6:a7:ca:04:52:46:1d:70:28:1a:22:
                    67:ea:b6:3c:3f:21:d6:42:e8:4f:3b:1c:24:71:7c:
                    bc:68:44:90:8b:d5:79:d7:7e:24:ba:34:7b:b3:63:
                    c9:1b
                Exponent: 65537 (0x10001)
        X509v3 extensions:
            X509v3 Basic Constraints: 
                CA:FALSE
            Netscape Comment: 
                Easy-RSA Generated Certificate
            X509v3 Subject Key Identifier: 
                71:35:1A:05:CA:CE:D1:61:B5:75:9D:68:55:65:92:8B:BF:99:5D:4D
            X509v3 Authority Key Identifier: 
                keyid:DD:66:BC:A2:3C:3F:28:93:E0:CE:81:B3:F3:57:A8:33:42:61:86:22
                DirName:/C=CN/ST=guangdong/L=guangzhou/O=pinkong/OU=pinkongUnit/CN=pinkong CA/name=EasyRSA/emailAddress=me@myhost.mydomain
                serial:AD:43:61:A4:0A:33:8C:89

            X509v3 Extended Key Usage: 
                TLS Web Client Authentication
            X509v3 Key Usage: 
                Digital Signature
    Signature Algorithm: sha256WithRSAEncryption
         70:31:3f:32:9e:95:9d:74:f1:f0:36:cb:ee:88:ab:84:24:0e:
         ba:28:12:0f:3e:76:e9:24:30:04:09:80:a5:bb:8a:ab:f7:ce:
         f2:54:11:ae:6a:a2:d2:da:28:3d:b8:bc:09:83:88:3c:08:7d:
         c0:0a:f3:37:b6:a1:8b:9e:d1:61:a0:c7:84:da:1c:0b:3c:20:
         4d:07:af:46:f4:58:1c:13:ba:57:ae:52:4e:34:76:ab:c6:51:
         88:0b:8f:03:1e:fb:20:f7:8d:06:f6:8d:59:13:57:b5:ef:34:
         df:b2:79:ef:03:cd:f3:dd:0a:17:14:08:9f:e0:8b:13:8f:73:
         f0:bf:d2:23:02:84:98:64:f1:bc:50:d7:3e:74:c3:23:9f:2c:
         b5:8d:c3:c7:84:f0:45:86:2a:8c:c9:33:28:80:c7:58:d6:e6:
         48:91:3f:d3:fe:69:70:c4:0c:97:95:65:59:85:b3:7a:12:fb:
         58:43:82:2f:e6:59:8c:11:19:4c:02:60:3d:5b:32:2a:ab:04:
         8f:41:cd:e5:58:ef:ee:7d:ab:9e:f9:bb:f7:85:42:eb:20:7c:
         04:6f:31:9c:b3:10:09:3a:e7:45:1d:30:fc:cb:2a:7b:9b:a7:
         63:1d:3e:45:5f:a7:e6:ce:41:63:68:65:cf:0e:85:fd:f2:55:
         ab:d4:43:24
-----BEGIN CERTIFICATE-----
MIIFJTCCBA2gAwIBAgIBCzANBgkqhkiG9w0BAQsFADCBpzELMAkGA1UEBhMCQ04x
EjAQBgNVBAgTCWd1YW5nZG9uZzESMBAGA1UEBxMJZ3Vhbmd6aG91MRAwDgYDVQQK
EwdwaW5rb25nMRQwEgYDVQQLEwtwaW5rb25nVW5pdDETMBEGA1UEAxMKcGlua29u
ZyBDQTEQMA4GA1UEKRMHRWFzeVJTQTEhMB8GCSqGSIb3DQEJARYSbWVAbXlob3N0
Lm15ZG9tYWluMB4XDTE4MDIwNDEzMTA1OFoXDTI4MDIwMjEzMTA1OFowgaExCzAJ
BgNVBAYTAkNOMRIwEAYDVQQIEwlndWFuZ2RvbmcxEjAQBgNVBAcTCWd1YW5nemhv
dTEQMA4GA1UEChMHcGlua29uZzEUMBIGA1UECxMLcGlua29uZ1VuaXQxDTALBgNV
BAMTBGRmeGsxEDAOBgNVBCkTB0Vhc3lSU0ExITAfBgkqhkiG9w0BCQEWEm1lQG15
aG9zdC5teWRvbWFpbjCCASIwDQYJKoZIhvcNAQEBBQADggEPADCCAQoCggEBAMo1
rvZRxfZebY/H5wtxevmXX/dIFFXp8KA4Hnb2fYYMlDacQNfel1IJUah+y8LViXpX
tgLnqwEcBGO8DkMEdm0KSKClMmdPopZe86QD8mkyxgOq7OKzS5OA2nxC5Fk6wD3T
ifXy+crkq0/YVxZ++JmcAKtorAo7JTaL8/w8IGpmzpHFOsB3/OGLNNIcP6kqJAFs
kl7bt3+r2X2vmSLQU7gJtQLZ/WTE+RfVAQv2TJwu28HgIDrBF8Q6uCWuEUC7LNL+
Nhux0TIZ6pFNg07Cf0ZVhp8LHsanygRSRh1wKBoiZ+q2PD8h1kLoTzscJHF8vGhE
kIvVedd+JLo0e7NjyRsCAwEAAaOCAV4wggFaMAkGA1UdEwQCMAAwLQYJYIZIAYb4
QgENBCAWHkVhc3ktUlNBIEdlbmVyYXRlZCBDZXJ0aWZpY2F0ZTAdBgNVHQ4EFgQU
cTUaBcrO0WG1dZ1oVWWSi7+ZXU0wgdwGA1UdIwSB1DCB0YAU3Wa8ojw/KJPgzoGz
81eoM0JhhiKhga2kgaowgacxCzAJBgNVBAYTAkNOMRIwEAYDVQQIEwlndWFuZ2Rv
bmcxEjAQBgNVBAcTCWd1YW5nemhvdTEQMA4GA1UEChMHcGlua29uZzEUMBIGA1UE
CxMLcGlua29uZ1VuaXQxEzARBgNVBAMTCnBpbmtvbmcgQ0ExEDAOBgNVBCkTB0Vh
c3lSU0ExITAfBgkqhkiG9w0BCQEWEm1lQG15aG9zdC5teWRvbWFpboIJAK1DYaQK
M4yJMBMGA1UdJQQMMAoGCCsGAQUFBwMCMAsGA1UdDwQEAwIHgDANBgkqhkiG9w0B
AQsFAAOCAQEAcDE/Mp6VnXTx8DbL7oirhCQOuigSDz526SQwBAmApbuKq/fO8lQR
rmqi0tooPbi8CYOIPAh9wArzN7ahi57RYaDHhNocCzwgTQevRvRYHBO6V65STjR2
q8ZRiAuPAx77IPeNBvaNWRNXte8037J57wPN890KFxQIn+CLE49z8L/SIwKEmGTx
vFDXPnTDI58stY3Dx4TwRYYqjMkzKIDHWNbmSJE/0/5pcMQMl5VlWYWzehL7WEOC
L+ZZjBEZTAJgPVsyKqsEj0HN5Vjv7n2rnvm794VC6yB8BG8xnLMQCTrnRR0w/Msq
e5unYx0+RV+n5s5BY2hlzw6F/fJVq9RDJA==
-----END CERTIFICATE-----
