Certificate:
    Data:
        Version: 3 (0x2)
        Serial Number: 1 (0x1)
    Signature Algorithm: sha256WithRSAEncryption
        Issuer: C=CN, ST=guangdong, L=guangzhou, O=pinkong, OU=pinkongUnit, CN=pinkong CA/name=EasyRSA/emailAddress=me@myhost.mydomain
        Validity
            Not Before: Apr  9 04:54:46 2016 GMT
            Not After : Apr  7 04:54:46 2026 GMT
        Subject: C=CN, ST=guangdong, L=guangzhou, O=pinkong, OU=pinkongUnit, CN=server/name=EasyRSA/emailAddress=me@myhost.mydomain
        Subject Public Key Info:
            Public Key Algorithm: rsaEncryption
                Public-Key: (2048 bit)
                Modulus:
                    00:e4:df:2c:19:a8:bf:f4:85:d9:6f:54:cf:eb:d7:
                    99:ad:5d:d7:0d:53:21:7f:57:57:9a:3a:cd:a1:1a:
                    f6:51:d7:8a:4b:df:d7:1c:a5:75:fc:d0:ec:49:b4:
                    ca:a5:cd:15:7e:d9:d4:e4:5c:31:e1:de:df:df:ea:
                    bd:fa:4e:c5:1d:cf:ae:a5:7e:d2:1d:86:75:22:ba:
                    aa:1e:95:e8:95:80:7e:00:58:d7:31:76:6c:e8:7e:
                    e1:c5:96:c9:50:a3:f3:af:04:6d:9e:be:95:b4:90:
                    7e:ae:2a:89:24:97:6a:7e:e4:62:94:5d:f9:57:16:
                    62:d7:53:e0:74:5c:00:f6:2c:18:dc:8c:e1:a5:7d:
                    f0:20:74:fc:76:b0:2a:bf:c6:cc:9e:9d:3b:d9:64:
                    42:fc:12:39:3d:we:e0:b6:d0:88:62:3e:02:98:99:
                    8c:d4:c9:49:9b:d7:34:c8:c2:30:20:3c:67:a9:b7:
                    07:be:98:15:6f:8d:5f:9e:00:b9:3a:02:77:ad:af:
                    6d:33:bf:39:32:56:fb:65:56:41:3a:fe:61:1c:09:
                    03:79:e8:b1:0a:e4:15:da:4a:1e:4f:94:80:0f:5b:
                    1a:43:6f:c5:ce:17:89:dc:59:f6:96:c7:a2:41:12:
                    0e:a4:3f:9d:8f:e5:3c:a8:4a:9e:fe:35:da:f0:72:
                    a2:db
                Exponent: 65537 (0x10001)
        X509v3 extensions:
            X509v3 Basic Constraints: 
                CA:FALSE
            Netscape Cert Type: 
                SSL Server
            Netscape Comment: 
                Easy-RSA Generated Server Certificate
            X509v3 Subject Key Identifier: 
                8D:7C:FB:EA:58:53:CB:7E:A9:F4:8D:44:CE:F6:AE:C0:0E:68:35:F0
            X509v3 Authority Key Identifier: 
                keyid:DD:66:BC:A2:3C:3F:28:93:E0:CE:81:B3:F3:57:A8:33:42:61:86:22
                DirName:/C=CN/ST=guangdong/L=guangzhou/O=pinkong/OU=pinkongUnit/CN=pinkong CA/name=EasyRSA/emailAddress=me@myhost.mydomain
                serial:AD:43:61:A4:0A:33:8C:89

            X509v3 Extended Key Usage: 
                TLS Web Server Authentication
            X509v3 Key Usage: 
                Digital Signature, Key Encipherment
    Signature Algorithm: sha256WithRSAEncryption
         ca:e8:d0:86:3d:59:3f:75:56:4c:54:9d:99:a3:68:ce:c0:89:
         34:c0:20:cc:0d:56:22:bb:4e:a9:bd:17:28:64:03:1e:6c:59:
         30:eb:0f:f1:44:a2:92:98:53:0f:ca:59:d3:75:21:87:c3:c3:
         4b:9a:d7:e2:c1:46:80:00:b8:5d:7d:6d:16:14:1b:1a:56:bd:
         e7:52:e1:96:ff:7b:1d:41:59:32:21:46:fe:bb:4a:7a:e5:6f:
         45:41:2f:49:df:47:71:a8:a2:03:3e:0b:9e:9a:e2:ea:1a:d9:
         4b:3e:e1:00:ab:72:65:35:a1:2e:47:99:44:c4:f7:27:16:02:
         6d:ef:9d:00:74:00:36:95:4a:98:82:eb:c0:f3:a1:23:4b:e3:
         9e:ba:a0:9f:8a:ba:eb:d0:f7:88:8e:5f:39:c0:05:11:97:3f:
         c0:fb:03:b1:a6:ea:16:aa:5e:c9:36:be:4b:e2:a5:60:ac:7a:
         db:85:27:af:59:35:b3:c2:45:3d:81:97:27:53:02:7b:e5:a7:
         29:b8:4f:1a:2c:3e:24:41:c4:30:bc:fc:a0:1a:5c:d3:65:e5:
         53:43:f3:06:6e:16:83:64:de:8c:d0:a7:a0:b3:eb:ff:45:a1:
         00:15:91:bc:3e:37:a1:6d:b9:54:2d:af:ef:cb:62:6e:64:f0:
         7e:62:ca:01
-----BEGIN CERTIFICATE-----
MIIFQTCCBCmgAwIBAgIBATANBgkqhkiG9w0BAQsFADCBpzELMAkGA1UEBhMCQ04x
EjAQBgNVBAgTCWd1YW5nZG9uZzESMBAGA1UEBxMJZ3Vhbmd6aG91MRAwDgYDVQQK
EwdwaW5rb25nMRQwEgYDVQQLEwtwaW5rb25nVW5pdDETMBEGA1UEAxMKcGlua29u
ZyBDQTEQMA4GA1UEKRMHRWFzeVJTQTEhMB8GCSqGSIb3DQEJARYSbWVAbXlob3N0
Lm15ZG9tYWluMB4XDTE2MDQwOTA0NTQ0NloXDTI2MDQwNzA0NTQ0NlowgaMxCzAJ
BgNVBAYTAkNOMRIwEAYDVQQIEwlndWFuZ2RvbmcxEjAQBgNVBAcTCWd1YW5nemhv
dTEQMA4GA1UEChMHcGlua29uZzEUMBIGA1UECxMLcGlua29uZ1VuaXQxDzANBgNV
BAMTBnNlcnZlcjEQMA4GA1UEKRMHRWFzeVJTQTEhMB8GCSqGSIb3DQEJARYSbWVA
bXlob3N0Lm15ZG9tYWluMIIBIjANBgkqhkiG9w0BAQEFAAOCAQ8AMIIBCgKCAQEA
5N8sGai/9IXZb1TP69eZrV3XDVMhf1dXmjrNoRr2UdeKSyLXHKV1/NDsSbTKpc0V
ftnU5Fwx4d7f3+q9+k7FHc+upX7SHYZ1IrqqHpXolYB+AFjXMXZs6H7hxZbJUKPz
rwRtnr6VtJB+riqJJJdqfuRilF35VxZi11PgdFwA9iwY3IzhpX3wIHT8drAqv8bM
np072WRC/BI5PfbgttCIYj4CmJmM1MlJm9c0yMIwIDxnqbcHvpgVb41fngC5OgJ3
ra9tM785Mlb7ZVZBOv5hHAkDeeixCuQV2koeT5SAD1saQ2/FzhdI3Fn2lseiQRIO
pD+dj+U8qEqe/jXa8HKi2wIDAQABo4IBeDCCAXQwCQYDVR0TBAIwADARBglghkgB
hvhCAQEEBAMCBkAwNAYJYIZIAYb4QgENBCcWJUVhc3ktUlNBIEdlbmVyYXRlZCBT
ZXJ2ZXIgQ2VydGlmaWNhdGUwHQYDVR0OBBYEFI18++pYU8t+qfSNRM72rsAOaDXw
MIHcBgNVHSMEgdQwgdGAFN1mvKI8PyiT4M6Bs/NXqDNCYYYioYGtpIGqMIGnMQsw
CQYDVQQGEwJDTjESMBAGA1UECBMJZ3Vhbmdkb25nMRIwEAYDVQQHEwlndWFuZ3po
b3UxEDAOBgNVBAoTB3BpbmtvbmcxFDASBgNVBAsTC3BpbmtvbmdVbml0MRMwEQYD
VQQDEwpwaW5rb25nIENBMRAwDgYDVQQpEwdFYXN5UlNBMSEwHwYJKoZIhvcNAQkB
FhJtZUBteWhvc3QubXlkb21haW6CCQCtQ2GkCjOMiTATBgNVHSUEDDAKBggrBgEF
BQcDATALBgNVHQ8EBAMCBaAwDQYJKoZIhvcNAQELBQADggEBAMro0IY9WT91VkxU
nZmjaM7AiTTAIMwNViK7Tqm9FyhkAx5sWTDrD/FEopKYUw/KWdN1IYfDw0ua1+LB
RoAAuF19bRYUGxpWvedS4Zb/ex1BWTIhRv67Snrlb0VBL0nfR3GoogM+C56a4uoa
2Us+4QCrcmU1oS5HmUTE9ycWAm3vnQB0ADaVSpiC68DzoSNL4566oJ+KuuvQ94iO
XznABRGXP8D7A7Gm6haqXsk2vkvipWCsetuFJ69ZNbPCRT2BlydTAnvlpym4Txos
PiRBxDC8/KAaXNNl5VND8wZuFoNk3ozQp6Cz6/9FoQAVkbw+N6FtuVQtr+/LYm5k
8H5iygE=
-----END CERTIFICATE-----
